target datalayout = "e-m:e-p270:32:32-p271:32:32-p272:64:64-i64:64-i128:128-f80:128-n8:16:32:64-S128"
target triple = "x86_64-unknown-linux-gnu"

%struct.ChardevBackend = type { i32, %union.anon }
%union.anon = type { %struct.ChardevFileWrapper }
%struct.ChardevFileWrapper = type { ptr }
%struct._GString = type { ptr, i64, i64 }
%struct.ChardevMuxWrapper = type { ptr }
%struct.ChardevMux = type { ptr, i8, i8, ptr }
%struct.ChadevClassFE = type { ptr, ptr }

@.str = private unnamed_addr constant [10 x i8] c"/chardevs\00", align 1
@.str.2 = private unnamed_addr constant [23 x i8] c"../qemu/chardev/char.c\00", align 1
@.str.4 = private unnamed_addr constant [8 x i8] c"chardev\00", align 1
@.str.7 = private unnamed_addr constant [4 x i8] c"mux\00", align 1
@.str.18 = private unnamed_addr constant [8 x i8] c"backend\00", align 1
@.str.62 = private unnamed_addr constant [1 x i8] zeroinitializer, align 1
@.str.63 = private unnamed_addr constant [37 x i8] c"Available chardev backend types: %s\0A\00", align 1
@__func__.qemu_chr_new_from_opts = private unnamed_addr constant [23 x i8] c"qemu_chr_new_from_opts\00", align 1
@.str.64 = private unnamed_addr constant [25 x i8] c"chardev: no id specified\00", align 1
@.str.65 = private unnamed_addr constant [8 x i8] c"%s-base\00", align 1
@.str.66 = private unnamed_addr constant [12 x i8] c"chardev-mux\00", align 1
@.str.110 = private unnamed_addr constant [2 x i8] c"?\00", align 1
@.str.111 = private unnamed_addr constant [5 x i8] c"help\00", align 1

; Function Attrs: nounwind sspstrong uwtable
define internal void @g_autoptr_cleanup_generic_gfree(ptr noundef %p) #0 {
entry:
  %p.addr = alloca ptr, align 8
  %pp = alloca ptr, align 8
  store ptr %p, ptr %p.addr, align 8
  %0 = load ptr, ptr %p.addr, align 8
  store ptr %0, ptr %pp, align 8
  %1 = load ptr, ptr %pp, align 8
  %2 = load ptr, ptr %1, align 8
  call void @g_free(ptr noundef %2)
  ret void
}

; Function Attrs: nounwind sspstrong uwtable
define dso_local ptr @get_chardevs_root() #0 {
entry:
  %call = call ptr @object_get_root()
  %call1 = call ptr @container_get(ptr noundef %call, ptr noundef @.str)
  ret ptr %call1
}

; Function Attrs: nounwind sspstrong uwtable
define dso_local ptr @qemu_chardev_new(ptr noundef %id, ptr noundef %typename, ptr noundef %backend, ptr noundef %gcontext, ptr noundef %errp) #0 {
entry:
  %retval = alloca ptr, align 8
  %id.addr = alloca ptr, align 8
  %typename.addr = alloca ptr, align 8
  %backend.addr = alloca ptr, align 8
  %gcontext.addr = alloca ptr, align 8
  %errp.addr = alloca ptr, align 8
  %chr = alloca ptr, align 8
  %genid = alloca ptr, align 8
  %cleanup.dest.slot = alloca i32, align 4
  store ptr %id, ptr %id.addr, align 8
  store ptr %typename, ptr %typename.addr, align 8
  store ptr %backend, ptr %backend.addr, align 8
  store ptr %gcontext, ptr %gcontext.addr, align 8
  store ptr %errp, ptr %errp.addr, align 8
  store ptr null, ptr %genid, align 8
  %0 = load ptr, ptr %id.addr, align 8
  %tobool = icmp ne ptr %0, null
  br i1 %tobool, label %if.end, label %if.then

if.then:                                          ; preds = %entry
  %call = call ptr @id_generate(i32 noundef 2)
  store ptr %call, ptr %genid, align 8
  %1 = load ptr, ptr %genid, align 8
  store ptr %1, ptr %id.addr, align 8
  br label %if.end

if.end:                                           ; preds = %if.then, %entry
  %2 = load ptr, ptr %id.addr, align 8
  %3 = load ptr, ptr %typename.addr, align 8
  %4 = load ptr, ptr %backend.addr, align 8
  %5 = load ptr, ptr %gcontext.addr, align 8
  %6 = load ptr, ptr %errp.addr, align 8
  %call1 = call ptr @chardev_new(ptr noundef %2, ptr noundef %3, ptr noundef %4, ptr noundef %5, i1 noundef zeroext false, ptr noundef %6)
  store ptr %call1, ptr %chr, align 8
  %7 = load ptr, ptr %chr, align 8
  %tobool2 = icmp ne ptr %7, null
  br i1 %tobool2, label %if.end4, label %if.then3

if.then3:                                         ; preds = %if.end
  store ptr null, ptr %retval, align 8
  store i32 1, ptr %cleanup.dest.slot, align 4
  br label %cleanup

if.end4:                                          ; preds = %if.end
  %call5 = call ptr @get_chardevs_root()
  %8 = load ptr, ptr %id.addr, align 8
  %9 = load ptr, ptr %chr, align 8
  %10 = load ptr, ptr %errp.addr, align 8
  %call6 = call ptr @object_property_try_add_child(ptr noundef %call5, ptr noundef %8, ptr noundef %9, ptr noundef %10)
  %tobool7 = icmp ne ptr %call6, null
  br i1 %tobool7, label %if.end9, label %if.then8

if.then8:                                         ; preds = %if.end4
  %11 = load ptr, ptr %chr, align 8
  call void @object_unref(ptr noundef %11)
  store ptr null, ptr %retval, align 8
  store i32 1, ptr %cleanup.dest.slot, align 4
  br label %cleanup

if.end9:                                          ; preds = %if.end4
  %12 = load ptr, ptr %chr, align 8
  call void @object_unref(ptr noundef %12)
  %13 = load ptr, ptr %chr, align 8
  store ptr %13, ptr %retval, align 8
  store i32 1, ptr %cleanup.dest.slot, align 4
  br label %cleanup

cleanup:                                          ; preds = %if.end9, %if.then8, %if.then3
  call void @g_autoptr_cleanup_generic_gfree(ptr noundef %genid)
  %14 = load ptr, ptr %retval, align 8
  ret ptr %14
}

; Function Attrs: nounwind sspstrong uwtable
define internal void @chardev_name_foreach(ptr noundef %fn, ptr noundef %opaque) #0 {
entry:
  %fn.addr = alloca ptr, align 8
  %opaque.addr = alloca ptr, align 8
  %fe = alloca %struct.ChadevClassFE, align 8
  store ptr %fn, ptr %fn.addr, align 8
  store ptr %opaque, ptr %opaque.addr, align 8
  %fn1 = getelementptr inbounds %struct.ChadevClassFE, ptr %fe, i32 0, i32 0
  %0 = load ptr, ptr %fn.addr, align 8
  store ptr %0, ptr %fn1, align 8
  %opaque2 = getelementptr inbounds %struct.ChadevClassFE, ptr %fe, i32 0, i32 1
  %1 = load ptr, ptr %opaque.addr, align 8
  store ptr %1, ptr %opaque2, align 8
  call void @object_class_foreach(ptr noundef @chardev_class_foreach, ptr noundef @.str.4, i1 noundef zeroext false, ptr noundef %fe)
  ret void
}

; Function Attrs: nounwind sspstrong uwtable
define internal zeroext i1 @is_help_option(ptr noundef %s) #0 {
entry:
  %s.addr = alloca ptr, align 8
  store ptr %s, ptr %s.addr, align 8
  %0 = load ptr, ptr %s.addr, align 8
  %call = call i32 @strcmp(ptr noundef %0, ptr noundef @.str.110) #13
  %tobool = icmp ne i32 %call, 0
  br i1 %tobool, label %lor.rhs, label %lor.end

lor.rhs:                                          ; preds = %entry
  %1 = load ptr, ptr %s.addr, align 8
  %call1 = call i32 @strcmp(ptr noundef %1, ptr noundef @.str.111) #13
  %tobool2 = icmp ne i32 %call1, 0
  %lnot = xor i1 %tobool2, true
  br label %lor.end

lor.end:                                          ; preds = %lor.rhs, %entry
  %2 = phi i1 [ true, %entry ], [ %lnot, %lor.rhs ]
  ret i1 %2
}

; Function Attrs: nounwind sspstrong uwtable
define dso_local ptr @qemu_chr_new_from_opts(ptr noundef %opts, ptr noundef %context, ptr noundef %errp) #0 {
entry:
  %retval = alloca ptr, align 8
  %opts.addr = alloca ptr, align 8
  %context.addr = alloca ptr, align 8
  %errp.addr = alloca ptr, align 8
  %cc = alloca ptr, align 8
  %chr = alloca ptr, align 8
  %backend = alloca ptr, align 8
  %name = alloca ptr, align 8
  %id = alloca ptr, align 8
  %bid = alloca ptr, align 8
  %str = alloca ptr, align 8
  %mux = alloca ptr, align 8
  store ptr %opts, ptr %opts.addr, align 8
  store ptr %context, ptr %context.addr, align 8
  store ptr %errp, ptr %errp.addr, align 8
  store ptr null, ptr %chr, align 8
  store ptr null, ptr %backend, align 8
  %0 = load ptr, ptr %opts.addr, align 8
  %call = call ptr @qemu_opt_get(ptr noundef %0, ptr noundef @.str.18)
  store ptr %call, ptr %name, align 8
  %1 = load ptr, ptr %opts.addr, align 8
  %call1 = call ptr @qemu_opts_id(ptr noundef %1)
  store ptr %call1, ptr %id, align 8
  store ptr null, ptr %bid, align 8
  %2 = load ptr, ptr %name, align 8
  %tobool = icmp ne ptr %2, null
  br i1 %tobool, label %land.lhs.true, label %if.end

land.lhs.true:                                    ; preds = %entry
  %3 = load ptr, ptr %name, align 8
  %call2 = call zeroext i1 @is_help_option(ptr noundef %3)
  br i1 %call2, label %if.then, label %if.end

if.then:                                          ; preds = %land.lhs.true
  %call3 = call ptr @g_string_new(ptr noundef @.str.62)
  store ptr %call3, ptr %str, align 8
  %4 = load ptr, ptr %str, align 8
  call void @chardev_name_foreach(ptr noundef @help_string_append, ptr noundef %4)
  %5 = load ptr, ptr %str, align 8
  %str4 = getelementptr inbounds %struct._GString, ptr %5, i32 0, i32 0
  %6 = load ptr, ptr %str4, align 8
  %call5 = call i32 (ptr, ...) @qemu_printf(ptr noundef @.str.63, ptr noundef %6)
  %7 = load ptr, ptr %str, align 8
  %call6 = call ptr @g_string_free(ptr noundef %7, i32 noundef 1)
  store ptr null, ptr %retval, align 8
  br label %return

if.end:                                           ; preds = %land.lhs.true, %entry
  %8 = load ptr, ptr %id, align 8
  %cmp = icmp eq ptr %8, null
  br i1 %cmp, label %if.then7, label %if.end8

if.then7:                                         ; preds = %if.end
  %9 = load ptr, ptr %errp.addr, align 8
  call void (ptr, ptr, i32, ptr, ptr, ...) @error_setg_internal(ptr noundef %9, ptr noundef @.str.2, i32 noundef 627, ptr noundef @__func__.qemu_chr_new_from_opts, ptr noundef @.str.64)
  store ptr null, ptr %retval, align 8
  br label %return

if.end8:                                          ; preds = %if.end
  %10 = load ptr, ptr %opts.addr, align 8
  %11 = load ptr, ptr %errp.addr, align 8
  %call9 = call ptr @qemu_chr_parse_opts(ptr noundef %10, ptr noundef %11)
  store ptr %call9, ptr %backend, align 8
  %12 = load ptr, ptr %backend, align 8
  %cmp10 = icmp eq ptr %12, null
  br i1 %cmp10, label %if.then11, label %if.end12

if.then11:                                        ; preds = %if.end8
  store ptr null, ptr %retval, align 8
  br label %return

if.end12:                                         ; preds = %if.end8
  %13 = load ptr, ptr %name, align 8
  %14 = load ptr, ptr %errp.addr, align 8
  %call13 = call ptr @char_get_class(ptr noundef %13, ptr noundef %14)
  store ptr %call13, ptr %cc, align 8
  %15 = load ptr, ptr %cc, align 8
  %cmp14 = icmp eq ptr %15, null
  br i1 %cmp14, label %if.then15, label %if.end16

if.then15:                                        ; preds = %if.end12
  br label %out

if.end16:                                         ; preds = %if.end12
  %16 = load ptr, ptr %opts.addr, align 8
  %call17 = call zeroext i1 @qemu_opt_get_bool(ptr noundef %16, ptr noundef @.str.7, i1 noundef zeroext false)
  br i1 %call17, label %if.then18, label %if.end20

if.then18:                                        ; preds = %if.end16
  %17 = load ptr, ptr %id, align 8
  %call19 = call noalias ptr (ptr, ...) @g_strdup_printf(ptr noundef @.str.65, ptr noundef %17)
  store ptr %call19, ptr %bid, align 8
  br label %if.end20

if.end20:                                         ; preds = %if.then18, %if.end16
  %18 = load ptr, ptr %bid, align 8
  %tobool21 = icmp ne ptr %18, null
  br i1 %tobool21, label %cond.true, label %cond.false

cond.true:                                        ; preds = %if.end20
  %19 = load ptr, ptr %bid, align 8
  br label %cond.end

cond.false:                                       ; preds = %if.end20
  %20 = load ptr, ptr %id, align 8
  br label %cond.end

cond.end:                                         ; preds = %cond.false, %cond.true
  %cond = phi ptr [ %19, %cond.true ], [ %20, %cond.false ]
  %21 = load ptr, ptr %cc, align 8
  %call22 = call ptr @object_class_get_name(ptr noundef %21)
  %22 = load ptr, ptr %backend, align 8
  %23 = load ptr, ptr %context.addr, align 8
  %24 = load ptr, ptr %errp.addr, align 8
  %call23 = call ptr @qemu_chardev_new(ptr noundef %cond, ptr noundef %call22, ptr noundef %22, ptr noundef %23, ptr noundef %24)
  store ptr %call23, ptr %chr, align 8
  %25 = load ptr, ptr %chr, align 8
  %cmp24 = icmp eq ptr %25, null
  br i1 %cmp24, label %if.then25, label %if.end26

if.then25:                                        ; preds = %cond.end
  br label %out

if.end26:                                         ; preds = %cond.end
  %26 = load ptr, ptr %bid, align 8
  %tobool27 = icmp ne ptr %26, null
  br i1 %tobool27, label %if.then28, label %if.end38

if.then28:                                        ; preds = %if.end26
  %27 = load ptr, ptr %backend, align 8
  call void @qapi_free_ChardevBackend(ptr noundef %27)
  %call29 = call noalias ptr @g_malloc0_n(i64 noundef 1, i64 noundef 16) #15
  store ptr %call29, ptr %backend, align 8
  %28 = load ptr, ptr %backend, align 8
  %type = getelementptr inbounds %struct.ChardevBackend, ptr %28, i32 0, i32 0
  store i32 8, ptr %type, align 8
  %call30 = call noalias ptr @g_malloc0_n(i64 noundef 1, i64 noundef 24) #15
  %29 = load ptr, ptr %backend, align 8
  %u = getelementptr inbounds %struct.ChardevBackend, ptr %29, i32 0, i32 1
  %data = getelementptr inbounds %struct.ChardevMuxWrapper, ptr %u, i32 0, i32 0
  store ptr %call30, ptr %data, align 8
  %30 = load ptr, ptr %bid, align 8
  %call31 = call noalias ptr @g_strdup(ptr noundef %30)
  %31 = load ptr, ptr %backend, align 8
  %u32 = getelementptr inbounds %struct.ChardevBackend, ptr %31, i32 0, i32 1
  %data33 = getelementptr inbounds %struct.ChardevMuxWrapper, ptr %u32, i32 0, i32 0
  %32 = load ptr, ptr %data33, align 8
  %chardev = getelementptr inbounds %struct.ChardevMux, ptr %32, i32 0, i32 3
  store ptr %call31, ptr %chardev, align 8
  %33 = load ptr, ptr %id, align 8
  %34 = load ptr, ptr %backend, align 8
  %35 = load ptr, ptr %context.addr, align 8
  %36 = load ptr, ptr %errp.addr, align 8
  %call34 = call ptr @qemu_chardev_new(ptr noundef %33, ptr noundef @.str.66, ptr noundef %34, ptr noundef %35, ptr noundef %36)
  store ptr %call34, ptr %mux, align 8
  %37 = load ptr, ptr %mux, align 8
  %cmp35 = icmp eq ptr %37, null
  br i1 %cmp35, label %if.then36, label %if.end37

if.then36:                                        ; preds = %if.then28
  %38 = load ptr, ptr %chr, align 8
  call void @object_unparent(ptr noundef %38)
  store ptr null, ptr %chr, align 8
  br label %out

if.end37:                                         ; preds = %if.then28
  %39 = load ptr, ptr %mux, align 8
  store ptr %39, ptr %chr, align 8
  br label %if.end38

if.end38:                                         ; preds = %if.end37, %if.end26
  br label %out

out:                                              ; preds = %if.end38, %if.then36, %if.then25, %if.then15
  %40 = load ptr, ptr %backend, align 8
  call void @qapi_free_ChardevBackend(ptr noundef %40)
  %41 = load ptr, ptr %bid, align 8
  call void @g_free(ptr noundef %41)
  %42 = load ptr, ptr %chr, align 8
  store ptr %42, ptr %retval, align 8
  br label %return

return:                                           ; preds = %out, %if.then11, %if.then7, %if.then
  %43 = load ptr, ptr %retval, align 8
  ret ptr %43
}