; Function Attrs: nounwind sspstrong uwtable
define dso_local ptr @qemu_chr_new_from_opts(ptr noundef %opts, ptr noundef %context, ptr noundef %errp) local_unnamed_addr #0 {
entry:
  %fe.i = alloca %struct.ChadevClassFE, align 8
  %call = tail call ptr @qemu_opt_get(ptr noundef %opts, ptr noundef nonnull @.str.18) #13
  %call1 = tail call ptr @qemu_opts_id(ptr noundef %opts) #13
  %tobool.not = icmp eq ptr %call, null
  br i1 %tobool.not, label %if.end, label %land.lhs.true

land.lhs.true:                                    ; preds = %entry
  %0 = load i8, ptr %call, align 1
  %.not.i = icmp eq i8 %0, 63
  br i1 %.not.i, label %entry.tail.i, label %is_help_option.exit

entry.tail.i:                                     ; preds = %land.lhs.true
  %1 = getelementptr inbounds nuw i8, ptr %call, i64 1
  %2 = load i8, ptr %1, align 1
  %3 = icmp eq i8 %2, 0
  br i1 %3, label %if.then, label %is_help_option.exit

is_help_option.exit:                              ; preds = %land.lhs.true, %entry.tail.i
  %call1.i = tail call i32 @strcmp(ptr noundef nonnull readonly dereferenceable(1) %call, ptr noundef nonnull dereferenceable(5) @.str.111) #16
  %tobool2.not.i = icmp eq i32 %call1.i, 0
  br i1 %tobool2.not.i, label %if.then, label %if.end

if.then:                                          ; preds = %entry.tail.i, %is_help_option.exit
  %call3 = tail call ptr @g_string_new(ptr noundef nonnull @.str.62) #13
  call void @llvm.lifetime.start.p0(i64 16, ptr nonnull %fe.i)
  store ptr @help_string_append, ptr %fe.i, align 8
  %opaque2.i = getelementptr inbounds nuw i8, ptr %fe.i, i64 8
  store ptr %call3, ptr %opaque2.i, align 8
  call void @object_class_foreach(ptr noundef nonnull @chardev_class_foreach, ptr noundef nonnull @.str.4, i1 noundef zeroext false, ptr noundef nonnull %fe.i) #13
  call void @llvm.lifetime.end.p0(i64 16, ptr nonnull %fe.i)
  %4 = load ptr, ptr %call3, align 8
  %call5 = call i32 (ptr, ...) @qemu_printf(ptr noundef nonnull @.str.63, ptr noundef %4) #13
  %call6 = call ptr @g_string_free(ptr noundef nonnull %call3, i32 noundef 1) #13
  br label %return

if.end:                                           ; preds = %is_help_option.exit, %entry
  %cmp = icmp eq ptr %call1, null
  br i1 %cmp, label %if.then7, label %if.end8

if.then7:                                         ; preds = %if.end
  tail call void (ptr, ptr, i32, ptr, ptr, ...) @error_setg_internal(ptr noundef %errp, ptr noundef nonnull @.str.2, i32 noundef 627, ptr noundef nonnull @__func__.qemu_chr_new_from_opts, ptr noundef nonnull @.str.64) #13
  br label %return

if.end8:                                          ; preds = %if.end
  %call9 = tail call ptr @qemu_chr_parse_opts(ptr noundef %opts, ptr noundef %errp)
  %cmp10 = icmp eq ptr %call9, null
  br i1 %cmp10, label %return, label %if.end12

if.end12:                                         ; preds = %if.end8
  %call13 = tail call fastcc ptr @char_get_class(ptr noundef %call, ptr noundef %errp)
  %cmp14 = icmp eq ptr %call13, null
  br i1 %cmp14, label %out, label %if.end16

if.end16:                                         ; preds = %if.end12
  %call17 = tail call zeroext i1 @qemu_opt_get_bool(ptr noundef %opts, ptr noundef nonnull @.str.7, i1 noundef zeroext false) #13
  br i1 %call17, label %if.then18, label %if.end.i

if.then18:                                        ; preds = %if.end16
  %call19 = tail call noalias ptr (ptr, ...) @g_strdup_printf(ptr noundef nonnull @.str.65, ptr noundef nonnull %call1) #13
  br label %if.end.i

if.end.i:                                         ; preds = %if.end16, %if.then18
  %bid.1 = phi ptr [ %call19, %if.then18 ], [ null, %if.end16 ]
  %tobool21 = icmp ne ptr %bid.1, null
  %cond = select i1 %tobool21, ptr %bid.1, ptr %call1
  %call22 = tail call ptr @object_class_get_name(ptr noundef nonnull %call13) #13
  %call1.i31 = tail call fastcc ptr @chardev_new(ptr noundef nonnull %cond, ptr noundef %call22, ptr noundef nonnull %call9, ptr noundef %context, i1 noundef zeroext false, ptr noundef %errp)
  %tobool2.not.i32 = icmp eq ptr %call1.i31, null
  br i1 %tobool2.not.i32, label %qemu_chardev_new.exit.thread, label %qemu_chardev_new.exit

qemu_chardev_new.exit.thread:                     ; preds = %if.end.i
  tail call void @g_free(ptr noundef null) #13
  br label %out

qemu_chardev_new.exit:                            ; preds = %if.end.i
  %call.i.i = tail call ptr @object_get_root() #13
  %call1.i.i = tail call ptr @container_get(ptr noundef %call.i.i, ptr noundef nonnull @.str) #13
  %call6.i = tail call ptr @object_property_try_add_child(ptr noundef %call1.i.i, ptr noundef nonnull %cond, ptr noundef nonnull %call1.i31, ptr noundef %errp) #13
  %tobool7.not.i = icmp eq ptr %call6.i, null
  tail call void @object_unref(ptr noundef nonnull %call1.i31) #13
  %.call1.i = select i1 %tobool7.not.i, ptr null, ptr %call1.i31
  tail call void @g_free(ptr noundef null) #13
  %cmp24 = icmp ne ptr %.call1.i, null
  %or.cond = select i1 %cmp24, i1 %tobool21, i1 false
  br i1 %or.cond, label %if.end.i34, label %out

if.end.i34:                                       ; preds = %qemu_chardev_new.exit
  tail call void @qapi_free_ChardevBackend(ptr noundef nonnull %call9) #13
  %call29 = tail call noalias dereferenceable_or_null(16) ptr @g_malloc0_n(i64 noundef 1, i64 noundef 16) #17
  store i32 8, ptr %call29, align 8
  %call30 = tail call noalias dereferenceable_or_null(24) ptr @g_malloc0_n(i64 noundef 1, i64 noundef 24) #17
  %u = getelementptr inbounds nuw i8, ptr %call29, i64 8
  store ptr %call30, ptr %u, align 8
  %call31 = tail call noalias ptr @g_strdup(ptr noundef nonnull %bid.1) #13
  %5 = load ptr, ptr %u, align 8
  %chardev = getelementptr inbounds nuw i8, ptr %5, i64 16
  store ptr %call31, ptr %chardev, align 8
  %call1.i37 = tail call fastcc ptr @chardev_new(ptr noundef nonnull %call1, ptr noundef nonnull @.str.66, ptr noundef nonnull %call29, ptr noundef %context, i1 noundef zeroext false, ptr noundef %errp)
  %tobool2.not.i38 = icmp eq ptr %call1.i37, null
  br i1 %tobool2.not.i38, label %if.then36, label %if.end4.i39

if.end4.i39:                                      ; preds = %if.end.i34
  %call.i.i40 = tail call ptr @object_get_root() #13
  %call1.i.i41 = tail call ptr @container_get(ptr noundef %call.i.i40, ptr noundef nonnull @.str) #13
  %call6.i42 = tail call ptr @object_property_try_add_child(ptr noundef %call1.i.i41, ptr noundef nonnull %call1, ptr noundef nonnull %call1.i37, ptr noundef %errp) #13
  %tobool7.not.i43 = icmp eq ptr %call6.i42, null
  tail call void @object_unref(ptr noundef nonnull %call1.i37) #13
  br i1 %tobool7.not.i43, label %if.then36, label %qemu_chardev_new.exit48

qemu_chardev_new.exit48:                          ; preds = %if.end4.i39
  tail call void @g_free(ptr noundef null) #13
  br label %out

if.then36:                                        ; preds = %if.end4.i39, %if.end.i34
  tail call void @g_free(ptr noundef null) #13
  tail call void @object_unparent(ptr noundef nonnull %.call1.i) #13
  br label %out

out:                                              ; preds = %qemu_chardev_new.exit48, %qemu_chardev_new.exit.thread, %qemu_chardev_new.exit, %if.end12, %if.then36
  %backend.0 = phi ptr [ %call9, %if.end12 ], [ %call29, %if.then36 ], [ %call9, %qemu_chardev_new.exit ], [ %call29, %qemu_chardev_new.exit48 ], [ %call9, %qemu_chardev_new.exit.thread ]
  %bid.0 = phi ptr [ null, %if.end12 ], [ %bid.1, %if.then36 ], [ %bid.1, %qemu_chardev_new.exit ], [ %bid.1, %qemu_chardev_new.exit48 ], [ %bid.1, %qemu_chardev_new.exit.thread ]
  %chr.0 = phi ptr [ null, %if.end12 ], [ null, %if.then36 ], [ %.call1.i, %qemu_chardev_new.exit ], [ %call1.i37, %qemu_chardev_new.exit48 ], [ null, %qemu_chardev_new.exit.thread ]
  tail call void @qapi_free_ChardevBackend(ptr noundef nonnull %backend.0) #13
  tail call void @g_free(ptr noundef %bid.0) #13
  br label %return

return:                                           ; preds = %if.end8, %out, %if.then7, %if.then
  %retval.0 = phi ptr [ null, %if.then ], [ null, %if.then7 ], [ %chr.0, %out ], [ null, %if.end8 ]
  ret ptr %retval.0
}